target datalayout = "e-m:e-p270:32:32-p271:32:32-p272:64:64-i64:64-i128:128-f80:128-n8:16:32:64-S128"
target triple = "x86_64-unknown-linux-gnu"

%class.btSliderConstraint = type { %class.btTypedConstraint, i8, i8, %class.btTransform, %class.btTransform, i8, float, float, float, float, float, float, float, float, float, float, float, float, float, float, float, float, float, float, float, float, float, float, float, float, float, float, float, float, i8, i8, i32, [3 x %class.btJacobianEntry], [3 x float], [3 x %class.btJacobianEntry], float, %class.btTransform, %class.btTransform, %class.btVector3, %class.btVector3, %class.btVector3, %class.btVector3, %class.btVector3, %class.btVector3, %class.btVector3, %class.btVector3, float, float, float, float, i8, float, float, float, i8, float, float, float }
%class.btTypedConstraint = type { ptr, %struct.btTypedObject, i32, %union.anon.0, float, i8, i8, i32, ptr, ptr, float, float, ptr }
%struct.btTypedObject = type { i32 }
%union.anon.0 = type { ptr }
%class.btJacobianEntry = type { %class.btVector3, %class.btVector3, %class.btVector3, %class.btVector3, %class.btVector3, float }
%class.btTransform = type { %class.btMatrix3x3, %class.btVector3 }
%class.btMatrix3x3 = type { [3 x %class.btVector3] }
%class.btVector3 = type { [4 x float] }

; Function Attrs: mustprogress nounwind uwtable
define dso_local noundef float @_ZNK18btSliderConstraint8getParamEii(ptr noundef nonnull align 8 dereferenceable(1152) %this, i32 noundef %num, i32 noundef %axis) unnamed_addr #1 align 2 {
entry:
  %this.addr = alloca ptr, align 8
  %num.addr = alloca i32, align 4
  %axis.addr = alloca i32, align 4
  %retVal = alloca float, align 4
  store ptr %this, ptr %this.addr, align 8
  store i32 %num, ptr %num.addr, align 4
  store i32 %axis, ptr %axis.addr, align 4
  %this1 = load ptr, ptr %this.addr, align 8
  store float 0x47EFFFFFE0000000, ptr %retVal, align 4
  %0 = load i32, ptr %num.addr, align 4
  switch i32 %0, label %sw.epilog [
    i32 2, label %sw.bb
    i32 3, label %sw.bb14
    i32 4, label %sw.bb23
  ]

sw.bb:                                            ; preds = %entry
  %1 = load i32, ptr %axis.addr, align 4
  %cmp = icmp slt i32 %1, 1
  br i1 %cmp, label %if.then, label %if.else

if.then:                                          ; preds = %sw.bb
  %m_softnessLimLin = getelementptr inbounds %class.btSliderConstraint, ptr %this1, i32 0, i32 18
  %2 = load float, ptr %m_softnessLimLin, align 8
  store float %2, ptr %retVal, align 4
  br label %if.end13

if.else:                                          ; preds = %sw.bb
  %3 = load i32, ptr %axis.addr, align 4
  %cmp2 = icmp slt i32 %3, 3
  br i1 %cmp2, label %if.then3, label %if.else4

if.then3:                                         ; preds = %if.else
  %m_softnessOrthoLin = getelementptr inbounds %class.btSliderConstraint, ptr %this1, i32 0, i32 26
  %4 = load float, ptr %m_softnessOrthoLin, align 8
  store float %4, ptr %retVal, align 4
  br label %if.end12

if.else4:                                         ; preds = %if.else
  %5 = load i32, ptr %axis.addr, align 4
  %cmp5 = icmp eq i32 %5, 3
  br i1 %cmp5, label %if.then6, label %if.else7

if.then6:                                         ; preds = %if.else4
  %m_softnessLimAng = getelementptr inbounds %class.btSliderConstraint, ptr %this1, i32 0, i32 22
  %6 = load float, ptr %m_softnessLimAng, align 8
  store float %6, ptr %retVal, align 4
  br label %if.end11

if.else7:                                         ; preds = %if.else4
  %7 = load i32, ptr %axis.addr, align 4
  %cmp8 = icmp slt i32 %7, 6
  br i1 %cmp8, label %if.then9, label %if.else10

if.then9:                                         ; preds = %if.else7
  %m_softnessOrthoAng = getelementptr inbounds %class.btSliderConstraint, ptr %this1, i32 0, i32 30
  %8 = load float, ptr %m_softnessOrthoAng, align 8
  store float %8, ptr %retVal, align 4
  br label %if.end

if.else10:                                        ; preds = %if.else7
  br label %if.end

if.end:                                           ; preds = %if.else10, %if.then9
  br label %if.end11

if.end11:                                         ; preds = %if.end, %if.then6
  br label %if.end12

if.end12:                                         ; preds = %if.end11, %if.then3
  br label %if.end13

if.end13:                                         ; preds = %if.end12, %if.then
  br label %sw.epilog

sw.bb14:                                          ; preds = %entry
  %9 = load i32, ptr %axis.addr, align 4
  %cmp15 = icmp slt i32 %9, 1
  br i1 %cmp15, label %if.then16, label %if.else17

if.then16:                                        ; preds = %sw.bb14
  %m_cfmDirLin = getelementptr inbounds %class.btSliderConstraint, ptr %this1, i32 0, i32 13
  %10 = load float, ptr %m_cfmDirLin, align 4
  store float %10, ptr %retVal, align 4
  br label %if.end22

if.else17:                                        ; preds = %sw.bb14
  %11 = load i32, ptr %axis.addr, align 4
  %cmp18 = icmp eq i32 %11, 3
  br i1 %cmp18, label %if.then19, label %if.else20

if.then19:                                        ; preds = %if.else17
  %m_cfmDirAng = getelementptr inbounds %class.btSliderConstraint, ptr %this1, i32 0, i32 17
  %12 = load float, ptr %m_cfmDirAng, align 4
  store float %12, ptr %retVal, align 4
  br label %if.end21

if.else20:                                        ; preds = %if.else17
  br label %if.end21

if.end21:                                         ; preds = %if.else20, %if.then19
  br label %if.end22

if.end22:                                         ; preds = %if.end21, %if.then16
  br label %sw.epilog

sw.bb23:                                          ; preds = %entry
  %13 = load i32, ptr %axis.addr, align 4
  %cmp24 = icmp slt i32 %13, 1
  br i1 %cmp24, label %if.then25, label %if.else26

if.then25:                                        ; preds = %sw.bb23
  %m_cfmLimLin = getelementptr inbounds %class.btSliderConstraint, ptr %this1, i32 0, i32 21
  %14 = load float, ptr %m_cfmLimLin, align 4
  store float %14, ptr %retVal, align 4
  br label %if.end39

if.else26:                                        ; preds = %sw.bb23
  %15 = load i32, ptr %axis.addr, align 4
  %cmp27 = icmp slt i32 %15, 3
  br i1 %cmp27, label %if.then28, label %if.else29

if.then28:                                        ; preds = %if.else26
  %m_cfmOrthoLin = getelementptr inbounds %class.btSliderConstraint, ptr %this1, i32 0, i32 29
  %16 = load float, ptr %m_cfmOrthoLin, align 4
  store float %16, ptr %retVal, align 4
  br label %if.end38

if.else29:                                        ; preds = %if.else26
  %17 = load i32, ptr %axis.addr, align 4
  %cmp30 = icmp eq i32 %17, 3
  br i1 %cmp30, label %if.then31, label %if.else32

if.then31:                                        ; preds = %if.else29
  %m_cfmLimAng = getelementptr inbounds %class.btSliderConstraint, ptr %this1, i32 0, i32 25
  %18 = load float, ptr %m_cfmLimAng, align 4
  store float %18, ptr %retVal, align 4
  br label %if.end37

if.else32:                                        ; preds = %if.else29
  %19 = load i32, ptr %axis.addr, align 4
  %cmp33 = icmp slt i32 %19, 6
  br i1 %cmp33, label %if.then34, label %if.else35

if.then34:                                        ; preds = %if.else32
  %m_cfmOrthoAng = getelementptr inbounds %class.btSliderConstraint, ptr %this1, i32 0, i32 33
  %20 = load float, ptr %m_cfmOrthoAng, align 4
  store float %20, ptr %retVal, align 4
  br label %if.end36

if.else35:                                        ; preds = %if.else32
  br label %if.end36

if.end36:                                         ; preds = %if.else35, %if.then34
  br label %if.end37

if.end37:                                         ; preds = %if.end36, %if.then31
  br label %if.end38

if.end38:                                         ; preds = %if.end37, %if.then28
  br label %if.end39

if.end39:                                         ; preds = %if.end38, %if.then25
  br label %sw.epilog

sw.epilog:                                        ; preds = %if.end39, %if.end22, %if.end13, %entry
  %21 = load float, ptr %retVal, align 4
  ret float %21
}