; Function Attrs: mustprogress nofree norecurse nosync nounwind willreturn memory(argmem: read) uwtable
define dso_local noundef float @_ZNK18btSliderConstraint8getParamEii(ptr nocapture noundef nonnull readonly align 8 dereferenceable(1152) %this, i32 noundef %num, i32 noundef %axis) unnamed_addr #10 align 2 {
entry:
  switch i32 %num, label %sw.epilog [
    i32 2, label %sw.bb
    i32 3, label %sw.bb14
    i32 4, label %sw.bb23
  ]

sw.bb:                                            ; preds = %entry
  %cmp = icmp slt i32 %axis, 1
  br i1 %cmp, label %if.then, label %if.else

if.then:                                          ; preds = %sw.bb
  %m_softnessLimLin = getelementptr inbounds i8, ptr %this, i64 256
  %0 = load float, ptr %m_softnessLimLin, align 8
  br label %sw.epilog

if.else:                                          ; preds = %sw.bb
  %cmp2 = icmp ult i32 %axis, 3
  br i1 %cmp2, label %if.then3, label %if.else4

if.then3:                                         ; preds = %if.else
  %m_softnessOrthoLin = getelementptr inbounds i8, ptr %this, i64 288
  %1 = load float, ptr %m_softnessOrthoLin, align 8
  br label %sw.epilog

if.else4:                                         ; preds = %if.else
  %cmp5 = icmp eq i32 %axis, 3
  br i1 %cmp5, label %if.then6, label %if.else7

if.then6:                                         ; preds = %if.else4
  %m_softnessLimAng = getelementptr inbounds i8, ptr %this, i64 272
  %2 = load float, ptr %m_softnessLimAng, align 8
  br label %sw.epilog

if.else7:                                         ; preds = %if.else4
  %cmp8 = icmp ult i32 %axis, 6
  br i1 %cmp8, label %if.then9, label %sw.epilog

if.then9:                                         ; preds = %if.else7
  %m_softnessOrthoAng = getelementptr inbounds i8, ptr %this, i64 304
  %3 = load float, ptr %m_softnessOrthoAng, align 8
  br label %sw.epilog

sw.bb14:                                          ; preds = %entry
  %cmp15 = icmp slt i32 %axis, 1
  br i1 %cmp15, label %if.then16, label %if.else17

if.then16:                                        ; preds = %sw.bb14
  %m_cfmDirLin = getelementptr inbounds i8, ptr %this, i64 236
  %4 = load float, ptr %m_cfmDirLin, align 4
  br label %sw.epilog

if.else17:                                        ; preds = %sw.bb14
  %cmp18 = icmp eq i32 %axis, 3
  br i1 %cmp18, label %if.then19, label %sw.epilog

if.then19:                                        ; preds = %if.else17
  %m_cfmDirAng = getelementptr inbounds i8, ptr %this, i64 252
  %5 = load float, ptr %m_cfmDirAng, align 4
  br label %sw.epilog

sw.bb23:                                          ; preds = %entry
  %cmp24 = icmp slt i32 %axis, 1
  br i1 %cmp24, label %if.then25, label %if.else26

if.then25:                                        ; preds = %sw.bb23
  %m_cfmLimLin = getelementptr inbounds i8, ptr %this, i64 268
  %6 = load float, ptr %m_cfmLimLin, align 4
  br label %sw.epilog

if.else26:                                        ; preds = %sw.bb23
  %cmp27 = icmp ult i32 %axis, 3
  br i1 %cmp27, label %if.then28, label %if.else29

if.then28:                                        ; preds = %if.else26
  %m_cfmOrthoLin = getelementptr inbounds i8, ptr %this, i64 300
  %7 = load float, ptr %m_cfmOrthoLin, align 4
  br label %sw.epilog

if.else29:                                        ; preds = %if.else26
  %cmp30 = icmp eq i32 %axis, 3
  br i1 %cmp30, label %if.then31, label %if.else32

if.then31:                                        ; preds = %if.else29
  %m_cfmLimAng = getelementptr inbounds i8, ptr %this, i64 284
  %8 = load float, ptr %m_cfmLimAng, align 4
  br label %sw.epilog

if.else32:                                        ; preds = %if.else29
  %cmp33 = icmp ult i32 %axis, 6
  br i1 %cmp33, label %if.then34, label %sw.epilog

if.then34:                                        ; preds = %if.else32
  %m_cfmOrthoAng = getelementptr inbounds i8, ptr %this, i64 316
  %9 = load float, ptr %m_cfmOrthoAng, align 4
  br label %sw.epilog

sw.epilog:                                        ; preds = %if.then25, %if.then31, %if.else32, %if.then34, %if.then28, %if.then16, %if.else17, %if.then19, %if.then, %if.then6, %if.else7, %if.then9, %if.then3, %entry
  %retVal.0 = phi float [ 0x47EFFFFFE0000000, %entry ], [ %6, %if.then25 ], [ %7, %if.then28 ], [ %8, %if.then31 ], [ %9, %if.then34 ], [ 0x47EFFFFFE0000000, %if.else32 ], [ %4, %if.then16 ], [ %5, %if.then19 ], [ 0x47EFFFFFE0000000, %if.else17 ], [ %0, %if.then ], [ %1, %if.then3 ], [ %2, %if.then6 ], [ %3, %if.then9 ], [ 0x47EFFFFFE0000000, %if.else7 ]
  ret float %retVal.0
}